target datalayout = "e-m:e-p270:32:32-p271:32:32-p272:64:64-i64:64-i128:128-f80:128-n8:16:32:64-S128"
target triple = "x86_64-pc-linux-gnu"

%struct.prov_cipher_ctx_st = type { [16 x i8], [16 x i8], [16 x i8], ptr, %union.anon, i32, i64, i64, i64, i64, i32, i8, i32, ptr, i32, i64, i32, i64, i32, ptr, ptr, ptr }
%union.anon = type { ptr }
%struct.ossl_param_st = type { ptr, i32, ptr, i64, i64 }

@.str.1 = private unnamed_addr constant [60 x i8] c"../openssl/providers/implementations/ciphers/ciphercommon.c\00", align 1
@.str.7 = private unnamed_addr constant [7 x i8] c"keylen\00", align 1
@__func__.ossl_cipher_var_keylen_set_ctx_params = private unnamed_addr constant [38 x i8] c"ossl_cipher_var_keylen_set_ctx_params\00", align 1

; Function Attrs: inlinehint nounwind uwtable
define internal i32 @ossl_param_is_empty(ptr noundef %0) #3 {
  %2 = alloca ptr, align 8
  store ptr %0, ptr %2, align 8, !tbaa !7
  %3 = load ptr, ptr %2, align 8, !tbaa !7
  %4 = icmp eq ptr %3, null
  br i1 %4, label %10, label %5

5:                                                ; preds = %1
  %6 = load ptr, ptr %2, align 8, !tbaa !7
  %7 = getelementptr inbounds nuw %struct.ossl_param_st, ptr %6, i32 0, i32 0
  %8 = load ptr, ptr %7, align 8, !tbaa !20
  %9 = icmp eq ptr %8, null
  br label %10

10:                                               ; preds = %5, %1
  %11 = phi i1 [ true, %1 ], [ %9, %5 ]
  %12 = zext i1 %11 to i32
  ret i32 %12
}

; Function Attrs: nounwind uwtable
define i32 @ossl_cipher_var_keylen_set_ctx_params(ptr noundef %0, ptr noundef %1) #0 {
  %3 = alloca i32, align 4
  %4 = alloca ptr, align 8
  %5 = alloca ptr, align 8
  %6 = alloca ptr, align 8
  %7 = alloca ptr, align 8
  %8 = alloca i32, align 4
  %9 = alloca i64, align 8
  store ptr %0, ptr %4, align 8, !tbaa !3
  store ptr %1, ptr %5, align 8, !tbaa !7
  call void @llvm.lifetime.start.p0(i64 8, ptr %6) #7
  %10 = load ptr, ptr %4, align 8, !tbaa !3
  store ptr %10, ptr %6, align 8, !tbaa !13
  call void @llvm.lifetime.start.p0(i64 8, ptr %7) #7
  %11 = load ptr, ptr %5, align 8, !tbaa !7
  %12 = call i32 @ossl_param_is_empty(ptr noundef %11)
  %13 = icmp ne i32 %12, 0
  br i1 %13, label %14, label %15

14:                                               ; preds = %2
  store i32 1, ptr %3, align 4
  store i32 1, ptr %8, align 4
  br label %51

15:                                               ; preds = %2
  %16 = load ptr, ptr %4, align 8, !tbaa !3
  %17 = load ptr, ptr %5, align 8, !tbaa !7
  %18 = call i32 @ossl_cipher_generic_set_ctx_params(ptr noundef %16, ptr noundef %17)
  %19 = icmp ne i32 %18, 0
  br i1 %19, label %21, label %20

20:                                               ; preds = %15
  store i32 0, ptr %3, align 4
  store i32 1, ptr %8, align 4
  br label %51

21:                                               ; preds = %15
  %22 = load ptr, ptr %5, align 8, !tbaa !7
  %23 = call ptr @OSSL_PARAM_locate_const(ptr noundef %22, ptr noundef @.str.7)
  store ptr %23, ptr %7, align 8, !tbaa !7
  %24 = load ptr, ptr %7, align 8, !tbaa !7
  %25 = icmp ne ptr %24, null
  br i1 %25, label %26, label %50

26:                                               ; preds = %21
  call void @llvm.lifetime.start.p0(i64 8, ptr %9) #7
  %27 = load ptr, ptr %7, align 8, !tbaa !7
  %28 = call i32 @OSSL_PARAM_get_size_t(ptr noundef %27, ptr noundef %9)
  %29 = icmp ne i32 %28, 0
  br i1 %29, label %31, label %30

30:                                               ; preds = %26
  call void @ERR_new()
  call void @ERR_set_debug(ptr noundef @.str.1, i32 noundef 130, ptr noundef @__func__.ossl_cipher_var_keylen_set_ctx_params)
  call void (i32, i32, ptr, ...) @ERR_set_error(i32 noundef 57, i32 noundef 103, ptr noundef null)
  store i32 0, ptr %3, align 4
  store i32 1, ptr %8, align 4
  br label %47

31:                                               ; preds = %26
  %32 = load ptr, ptr %6, align 8, !tbaa !13
  %33 = getelementptr inbounds nuw %struct.prov_cipher_ctx_st, ptr %32, i32 0, i32 6
  %34 = load i64, ptr %33, align 8, !tbaa !15
  %35 = load i64, ptr %9, align 8, !tbaa !11
  %36 = icmp ne i64 %34, %35
  br i1 %36, label %37, label %46

37:                                               ; preds = %31
  %38 = load i64, ptr %9, align 8, !tbaa !11
  %39 = load ptr, ptr %6, align 8, !tbaa !13
  %40 = getelementptr inbounds nuw %struct.prov_cipher_ctx_st, ptr %39, i32 0, i32 6
  store i64 %38, ptr %40, align 8, !tbaa !15
  %41 = load ptr, ptr %6, align 8, !tbaa !13
  %42 = getelementptr inbounds nuw %struct.prov_cipher_ctx_st, ptr %41, i32 0, i32 11
  %43 = load i8, ptr %42, align 4
  %44 = and i8 %43, -9
  %45 = or i8 %44, 0
  store i8 %45, ptr %42, align 4
  br label %46

46:                                               ; preds = %37, %31
  store i32 0, ptr %8, align 4
  br label %47

47:                                               ; preds = %46, %30
  call void @llvm.lifetime.end.p0(i64 8, ptr %9) #7
  %48 = load i32, ptr %8, align 4
  switch i32 %48, label %51 [
    i32 0, label %49
  ]

49:                                               ; preds = %47
  br label %50

50:                                               ; preds = %49, %21
  store i32 1, ptr %3, align 4
  store i32 1, ptr %8, align 4
  br label %51

51:                                               ; preds = %50, %47, %20, %14
  call void @llvm.lifetime.end.p0(i64 8, ptr %7) #7
  call void @llvm.lifetime.end.p0(i64 8, ptr %6) #7
  %52 = load i32, ptr %3, align 4
  ret i32 %52
}