; Function Attrs: nounwind uwtable
define range(i32 0, 2) i32 @ossl_cipher_var_keylen_set_ctx_params(ptr noundef %0, ptr noundef %1) local_unnamed_addr #1 {
  %3 = alloca i64, align 8
  %4 = icmp eq ptr %1, null
  br i1 %4, label %ossl_param_is_empty.exit.thread, label %ossl_param_is_empty.exit

ossl_param_is_empty.exit:                         ; preds = %2
  %5 = load ptr, ptr %1, align 8, !tbaa !3
  %.not = icmp eq ptr %5, null
  br i1 %.not, label %ossl_param_is_empty.exit.thread, label %6

6:                                                ; preds = %ossl_param_is_empty.exit
  %7 = tail call i32 @ossl_cipher_generic_set_ctx_params(ptr noundef %0, ptr noundef nonnull %1)
  %.not14 = icmp eq i32 %7, 0
  br i1 %.not14, label %ossl_param_is_empty.exit.thread, label %8

8:                                                ; preds = %6
  %9 = tail call ptr @OSSL_PARAM_locate_const(ptr noundef nonnull %1, ptr noundef nonnull @.str.7) #6
  %.not15 = icmp eq ptr %9, null
  br i1 %.not15, label %ossl_param_is_empty.exit.thread, label %10

10:                                               ; preds = %8
  call void @llvm.lifetime.start.p0(i64 8, ptr nonnull %3) #6
  %11 = call i32 @OSSL_PARAM_get_size_t(ptr noundef nonnull %9, ptr noundef nonnull %3) #6
  %.not16.not = icmp eq i32 %11, 0
  br i1 %.not16.not, label %20, label %12

12:                                               ; preds = %10
  %13 = getelementptr inbounds nuw i8, ptr %0, i64 72
  %14 = load i64, ptr %13, align 8, !tbaa !11
  %15 = load i64, ptr %3, align 8, !tbaa !15
  %.not17 = icmp eq i64 %14, %15
  br i1 %.not17, label %ossl_param_is_empty.exit.thread.sink.split, label %16

16:                                               ; preds = %12
  store i64 %15, ptr %13, align 8, !tbaa !11
  %17 = getelementptr inbounds nuw i8, ptr %0, i64 108
  %18 = load i8, ptr %17, align 4
  %19 = and i8 %18, -9
  store i8 %19, ptr %17, align 4
  br label %ossl_param_is_empty.exit.thread.sink.split

20:                                               ; preds = %10
  call void @ERR_new() #6
  call void @ERR_set_debug(ptr noundef nonnull @.str.1, i32 noundef 130, ptr noundef nonnull @__func__.ossl_cipher_var_keylen_set_ctx_params) #6
  call void (i32, i32, ptr, ...) @ERR_set_error(i32 noundef 57, i32 noundef 103, ptr noundef null) #6
  br label %ossl_param_is_empty.exit.thread.sink.split

ossl_param_is_empty.exit.thread.sink.split:       ; preds = %16, %12, %20
  %.011.ph = phi i32 [ 0, %20 ], [ 1, %12 ], [ 1, %16 ]
  call void @llvm.lifetime.end.p0(i64 8, ptr nonnull %3) #6
  br label %ossl_param_is_empty.exit.thread

ossl_param_is_empty.exit.thread:                  ; preds = %ossl_param_is_empty.exit.thread.sink.split, %2, %8, %6, %ossl_param_is_empty.exit
  %.011 = phi i32 [ 1, %ossl_param_is_empty.exit ], [ 0, %6 ], [ 1, %8 ], [ 1, %2 ], [ %.011.ph, %ossl_param_is_empty.exit.thread.sink.split ]
  ret i32 %.011
}